target datalayout = "e-m:e-p270:32:32-p271:32:32-p272:64:64-i64:64-i128:128-f80:128-n8:16:32:64-S128"
target triple = "x86_64-pc-linux-gnu"

%"class.std::chrono::time_point" = type { %"class.std::chrono::duration.2" }
%"class.std::chrono::duration.2" = type { i64 }
%"struct.google::logging::internal::LogMessageData" = type { i32, [30001 x i8], %"class.google::LogMessage::LogStream", i32, i32, { i64, i64 }, %union.anon.27, i64, i64, i64, ptr, ptr, i8, i8, %"class.std::thread::id" }
%"class.google::LogMessage::LogStream" = type { %"class.std::basic_ostream.base", %"class.google::base_logging::LogStreamBuf", i64, ptr, %"class.std::basic_ios" }
%"class.std::basic_ostream.base" = type { ptr }
%"class.google::base_logging::LogStreamBuf" = type { %"class.std::basic_streambuf" }
%"class.std::basic_streambuf" = type { ptr, ptr, ptr, ptr, ptr, ptr, ptr, %"class.std::locale" }
%"class.std::locale" = type { ptr }
%"class.std::basic_ios" = type { %"class.std::ios_base", ptr, i8, i8, ptr, ptr, ptr, ptr }
%"class.std::ios_base" = type { ptr, i64, i64, i32, i32, i32, ptr, %"struct.std::ios_base::_Words", [8 x %"struct.std::ios_base::_Words"], i32, ptr, %"class.std::locale" }
%"struct.std::ios_base::_Words" = type { ptr, i64 }
%union.anon.27 = type { ptr }
%"class.std::thread::id" = type { i64 }
%"class.google::LogMessage" = type { ptr, ptr, %"struct.google::LogMessageTime" }
%"struct.google::LogMessageTime" = type { %struct.tm, %"class.std::chrono::time_point", %"class.std::chrono::duration.28", %"class.std::chrono::duration.29" }
%struct.tm = type { i32, i32, i32, i32, i32, i32, i32, i32, i32, i64, ptr }
%"class.std::chrono::duration.28" = type { i64 }
%"class.std::chrono::duration.29" = type { i64 }

@_ZN6google14LogMessageTimeC1Ev = unnamed_addr alias void (ptr), ptr @_ZN6google14LogMessageTimeC2Ev

; Function Attrs: mustprogress uwtable
define void @_ZN6google10LogMessageC2EPKciNS_11LogSeverityEPNSt7__cxx1112basic_stringIcSt11char_traitsIcESaIcEEE(ptr noundef nonnull align 8 dereferenceable(96) %0, ptr noundef %1, i32 noundef %2, i32 noundef %3, ptr noundef %4) unnamed_addr #0 align 2 {
  %6 = alloca ptr, align 8
  %7 = alloca ptr, align 8
  %8 = alloca i32, align 4
  %9 = alloca i32, align 4
  %10 = alloca ptr, align 8
  %11 = alloca { i64, i64 }, align 8
  store ptr %0, ptr %6, align 8, !tbaa !128
  store ptr %1, ptr %7, align 8, !tbaa !9
  store i32 %2, ptr %8, align 4, !tbaa !11
  store i32 %3, ptr %9, align 4, !tbaa !51
  store ptr %4, ptr %10, align 8, !tbaa !68
  %12 = load ptr, ptr %6, align 8
  %13 = getelementptr inbounds nuw %"class.google::LogMessage", ptr %12, i32 0, i32 0
  store ptr null, ptr %13, align 8, !tbaa !130
  %14 = getelementptr inbounds nuw %"class.google::LogMessage", ptr %12, i32 0, i32 2
  call void @_ZN6google14LogMessageTimeC1Ev(ptr noundef nonnull align 8 dereferenceable(80) %14)
  %15 = load ptr, ptr %7, align 8, !tbaa !9
  %16 = load i32, ptr %8, align 4, !tbaa !11
  %17 = load i32, ptr %9, align 4, !tbaa !51
  store { i64, i64 } { i64 ptrtoint (ptr @_ZN6google10LogMessage19WriteToStringAndLogEv to i64), i64 0 }, ptr %11, align 8, !tbaa !77
  %18 = getelementptr inbounds nuw { i64, i64 }, ptr %11, i32 0, i32 0
  %19 = load i64, ptr %18, align 8
  %20 = getelementptr inbounds nuw { i64, i64 }, ptr %11, i32 0, i32 1
  %21 = load i64, ptr %20, align 8
  call void @_ZN6google10LogMessage4InitEPKciNS_11LogSeverityEMS0_FvvE(ptr noundef nonnull align 8 dereferenceable(96) %12, ptr noundef %15, i32 noundef %16, i32 noundef %17, i64 %19, i64 %21)
  %22 = load ptr, ptr %10, align 8, !tbaa !68
  %23 = getelementptr inbounds nuw %"class.google::LogMessage", ptr %12, i32 0, i32 1
  %24 = load ptr, ptr %23, align 8, !tbaa !136
  %25 = getelementptr inbounds nuw %"struct.google::logging::internal::LogMessageData", ptr %24, i32 0, i32 6
  store ptr %22, ptr %25, align 8, !tbaa !77
  ret void
}