; Function Attrs: mustprogress uwtable
define void @_ZN6google10LogMessageC2EPKciNS_11LogSeverityEPNSt7__cxx1112basic_stringIcSt11char_traitsIcESaIcEEE(ptr noundef nonnull align 8 dereferenceable(96) initializes((0, 8)) %0, ptr noundef %1, i32 noundef %2, i32 noundef %3, ptr noundef %4) unnamed_addr #0 align 2 {
  store ptr null, ptr %0, align 8, !tbaa !84
  %6 = getelementptr inbounds nuw i8, ptr %0, i64 16
  tail call void @_ZN6google14LogMessageTimeC1Ev(ptr noundef nonnull align 8 dereferenceable(80) %6)
  tail call void @_ZN6google10LogMessage4InitEPKciNS_11LogSeverityEMS0_FvvE(ptr noundef nonnull align 8 dereferenceable(96) %0, ptr noundef %1, i32 noundef %2, i32 noundef %3, i64 ptrtoint (ptr @_ZN6google10LogMessage19WriteToStringAndLogEv to i64), i64 0)
  %7 = getelementptr inbounds nuw i8, ptr %0, i64 8
  %8 = load ptr, ptr %7, align 8, !tbaa !91
  %9 = getelementptr inbounds nuw i8, ptr %8, i64 30384
  store ptr %4, ptr %9, align 8, !tbaa !51
  ret void
}